; Function Attrs: mustprogress uwtable
define hidden void @_ZN12opencv_caffe16SigmoidParameter9MergeImplEPN6google8protobuf7MessageERKS3_(ptr noundef %0, ptr noundef nonnull readonly align 8 captures(none) dereferenceable(16) %1) #3 align 2 personality ptr @__gxx_personality_v0 {
  %3 = getelementptr inbounds nuw i8, ptr %1, i64 16
  %4 = load i32, ptr %3, align 8, !tbaa !71
  %5 = and i32 %4, 1
  %.not.i = icmp eq i32 %5, 0
  br i1 %.not.i, label %13, label %6

6:                                                ; preds = %2
  %7 = getelementptr inbounds nuw i8, ptr %1, i64 24
  %8 = load i32, ptr %7, align 8, !tbaa !487
  %9 = getelementptr inbounds nuw i8, ptr %0, i64 16
  %10 = load i32, ptr %9, align 4, !tbaa !71
  %11 = or i32 %10, 1
  store i32 %11, ptr %9, align 4, !tbaa !71
  %12 = getelementptr inbounds nuw i8, ptr %0, i64 24
  store i32 %8, ptr %12, align 8, !tbaa !487
  br label %13

13:                                               ; preds = %6, %2
  %14 = getelementptr inbounds nuw i8, ptr %1, i64 8
  %15 = load i64, ptr %14, align 8, !tbaa !8
  %16 = and i64 %15, 1
  %.not4.i = icmp eq i64 %16, 0
  br i1 %.not4.i, label %_ZN12opencv_caffe16SigmoidParameter9MergeFromERKS0_.exit, label %_ZNK6google8protobuf8internal16InternalMetadata14unknown_fieldsINS0_15UnknownFieldSetEEERKT_PFS7_vE.exit.i

_ZNK6google8protobuf8internal16InternalMetadata14unknown_fieldsINS0_15UnknownFieldSetEEERKT_PFS7_vE.exit.i: ; preds = %13
  %17 = getelementptr inbounds nuw i8, ptr %0, i64 8
  %18 = and i64 %15, -4
  %19 = inttoptr i64 %18 to ptr
  %20 = getelementptr inbounds nuw i8, ptr %19, i64 8
  tail call void @_ZN6google8protobuf8internal16InternalMetadata11DoMergeFromINS0_15UnknownFieldSetEEEvRKT_(ptr noundef nonnull align 8 dereferenceable(8) %17, ptr noundef nonnull align 8 dereferenceable(24) %20)
  br label %_ZN12opencv_caffe16SigmoidParameter9MergeFromERKS0_.exit

_ZN12opencv_caffe16SigmoidParameter9MergeFromERKS0_.exit: ; preds = %13, %_ZNK6google8protobuf8internal16InternalMetadata14unknown_fieldsINS0_15UnknownFieldSetEEERKT_PFS7_vE.exit.i
  ret void
}